target datalayout = "e-m:e-p270:32:32-p271:32:32-p272:64:64-i64:64-i128:128-f80:128-n8:16:32:64-S128"
target triple = "x86_64-pc-linux-gnu"

%struct.VLCElem = type { %union.anon }
%union.anon = type { %struct.anon }
%struct.anon = type { i16, i16 }
%struct.anon.0 = type { i16, i8, i8 }

; Function Attrs: cold nounwind optsize uwtable
define void @ff_init_2d_vlc_rl(ptr noundef %0, ptr noundef %1, ptr noundef %2, ptr noundef %3, i32 noundef %4, i32 noundef %5, i32 noundef %6) #0 {
  %8 = alloca ptr, align 8
  %9 = alloca ptr, align 8
  %10 = alloca ptr, align 8
  %11 = alloca ptr, align 8
  %12 = alloca i32, align 4
  %13 = alloca i32, align 4
  %14 = alloca i32, align 4
  %15 = alloca i32, align 4
  %16 = alloca i32, align 4
  %17 = alloca i32, align 4
  %18 = alloca i32, align 4
  %19 = alloca i32, align 4
  store ptr %0, ptr %8, align 8, !tbaa !4
  store ptr %1, ptr %9, align 8, !tbaa !9
  store ptr %2, ptr %10, align 8, !tbaa !11
  store ptr %3, ptr %11, align 8, !tbaa !11
  store i32 %4, ptr %12, align 4, !tbaa !13
  store i32 %5, ptr %13, align 4, !tbaa !13
  store i32 %6, ptr %14, align 4, !tbaa !13
  %20 = load ptr, ptr %9, align 8, !tbaa !9
  %21 = load i32, ptr %13, align 4, !tbaa !13
  %22 = load i32, ptr %12, align 4, !tbaa !13
  %23 = add nsw i32 %22, 2
  %24 = load ptr, ptr %8, align 8, !tbaa !4
  %25 = getelementptr inbounds [2 x i16], ptr %24, i64 0
  %26 = getelementptr inbounds [2 x i16], ptr %25, i64 0, i64 1
  %27 = load ptr, ptr %8, align 8, !tbaa !4
  %28 = getelementptr inbounds [2 x i16], ptr %27, i64 0
  %29 = getelementptr inbounds [2 x i16], ptr %28, i64 0, i64 0
  %30 = load i32, ptr %14, align 4, !tbaa !13
  call void @ff_vlc_init_table_sparse(ptr noundef %20, i32 noundef %21, i32 noundef 9, i32 noundef %23, ptr noundef %26, i32 noundef 4, i32 noundef 2, ptr noundef %29, i32 noundef 4, i32 noundef 2, ptr noundef null, i32 noundef 0, i32 noundef 0, i32 noundef %30)
  call void @llvm.lifetime.start.p0(i64 4, ptr %15) #8
  store i32 0, ptr %15, align 4, !tbaa !13
  br label %31

31:                                               ; preds = %114, %7
  %32 = load i32, ptr %15, align 4, !tbaa !13
  %33 = load i32, ptr %13, align 4, !tbaa !13
  %34 = icmp ult i32 %32, %33
  br i1 %34, label %36, label %35

35:                                               ; preds = %31
  call void @llvm.lifetime.end.p0(i64 4, ptr %15) #8
  br label %117

36:                                               ; preds = %31
  call void @llvm.lifetime.start.p0(i64 4, ptr %16) #8
  %37 = load ptr, ptr %9, align 8, !tbaa !9
  %38 = load i32, ptr %15, align 4, !tbaa !13
  %39 = zext i32 %38 to i64
  %40 = getelementptr inbounds nuw %struct.VLCElem, ptr %37, i64 %39
  %41 = getelementptr inbounds nuw %struct.VLCElem, ptr %40, i32 0, i32 0
  %42 = getelementptr inbounds nuw %struct.anon, ptr %41, i32 0, i32 0
  %43 = load i16, ptr %42, align 2, !tbaa !15
  %44 = sext i16 %43 to i32
  store i32 %44, ptr %16, align 4, !tbaa !13
  call void @llvm.lifetime.start.p0(i64 4, ptr %17) #8
  %45 = load ptr, ptr %9, align 8, !tbaa !9
  %46 = load i32, ptr %15, align 4, !tbaa !13
  %47 = zext i32 %46 to i64
  %48 = getelementptr inbounds nuw %struct.VLCElem, ptr %45, i64 %47
  %49 = getelementptr inbounds nuw %struct.VLCElem, ptr %48, i32 0, i32 0
  %50 = getelementptr inbounds nuw %struct.anon, ptr %49, i32 0, i32 1
  %51 = load i16, ptr %50, align 2, !tbaa !15
  %52 = sext i16 %51 to i32
  store i32 %52, ptr %17, align 4, !tbaa !13
  call void @llvm.lifetime.start.p0(i64 4, ptr %18) #8
  call void @llvm.lifetime.start.p0(i64 4, ptr %19) #8
  %53 = load i32, ptr %17, align 4, !tbaa !13
  %54 = icmp eq i32 %53, 0
  br i1 %54, label %55, label %56

55:                                               ; preds = %36
  store i32 65, ptr %19, align 4, !tbaa !13
  store i32 64, ptr %18, align 4, !tbaa !13
  br label %89

56:                                               ; preds = %36
  %57 = load i32, ptr %17, align 4, !tbaa !13
  %58 = icmp slt i32 %57, 0
  br i1 %58, label %59, label %61

59:                                               ; preds = %56
  store i32 0, ptr %19, align 4, !tbaa !13
  %60 = load i32, ptr %16, align 4, !tbaa !13
  store i32 %60, ptr %18, align 4, !tbaa !13
  br label %88

61:                                               ; preds = %56
  %62 = load i32, ptr %16, align 4, !tbaa !13
  %63 = load i32, ptr %12, align 4, !tbaa !13
  %64 = icmp eq i32 %62, %63
  br i1 %64, label %65, label %66

65:                                               ; preds = %61
  store i32 65, ptr %19, align 4, !tbaa !13
  store i32 0, ptr %18, align 4, !tbaa !13
  br label %87

66:                                               ; preds = %61
  %67 = load i32, ptr %16, align 4, !tbaa !13
  %68 = load i32, ptr %12, align 4, !tbaa !13
  %69 = add nsw i32 %68, 1
  %70 = icmp eq i32 %67, %69
  br i1 %70, label %71, label %72

71:                                               ; preds = %66
  store i32 0, ptr %19, align 4, !tbaa !13
  store i32 127, ptr %18, align 4, !tbaa !13
  br label %86

72:                                               ; preds = %66
  %73 = load ptr, ptr %10, align 8, !tbaa !11
  %74 = load i32, ptr %16, align 4, !tbaa !13
  %75 = sext i32 %74 to i64
  %76 = getelementptr inbounds i8, ptr %73, i64 %75
  %77 = load i8, ptr %76, align 1, !tbaa !15
  %78 = sext i8 %77 to i32
  %79 = add nsw i32 %78, 1
  store i32 %79, ptr %19, align 4, !tbaa !13
  %80 = load ptr, ptr %11, align 8, !tbaa !11
  %81 = load i32, ptr %16, align 4, !tbaa !13
  %82 = sext i32 %81 to i64
  %83 = getelementptr inbounds i8, ptr %80, i64 %82
  %84 = load i8, ptr %83, align 1, !tbaa !15
  %85 = zext i8 %84 to i32
  store i32 %85, ptr %18, align 4, !tbaa !13
  br label %86

86:                                               ; preds = %72, %71
  br label %87

87:                                               ; preds = %86, %65
  br label %88

88:                                               ; preds = %87, %59
  br label %89

89:                                               ; preds = %88, %55
  %90 = load i32, ptr %17, align 4, !tbaa !13
  %91 = trunc i32 %90 to i8
  %92 = load ptr, ptr %9, align 8, !tbaa !9
  %93 = load i32, ptr %15, align 4, !tbaa !13
  %94 = zext i32 %93 to i64
  %95 = getelementptr inbounds nuw %struct.VLCElem, ptr %92, i64 %94
  %96 = getelementptr inbounds nuw %struct.VLCElem, ptr %95, i32 0, i32 0
  %97 = getelementptr inbounds nuw %struct.anon.0, ptr %96, i32 0, i32 1
  store i8 %91, ptr %97, align 2, !tbaa !15
  %98 = load i32, ptr %18, align 4, !tbaa !13
  %99 = trunc i32 %98 to i16
  %100 = load ptr, ptr %9, align 8, !tbaa !9
  %101 = load i32, ptr %15, align 4, !tbaa !13
  %102 = zext i32 %101 to i64
  %103 = getelementptr inbounds nuw %struct.VLCElem, ptr %100, i64 %102
  %104 = getelementptr inbounds nuw %struct.VLCElem, ptr %103, i32 0, i32 0
  %105 = getelementptr inbounds nuw %struct.anon.0, ptr %104, i32 0, i32 0
  store i16 %99, ptr %105, align 2, !tbaa !15
  %106 = load i32, ptr %19, align 4, !tbaa !13
  %107 = trunc i32 %106 to i8
  %108 = load ptr, ptr %9, align 8, !tbaa !9
  %109 = load i32, ptr %15, align 4, !tbaa !13
  %110 = zext i32 %109 to i64
  %111 = getelementptr inbounds nuw %struct.VLCElem, ptr %108, i64 %110
  %112 = getelementptr inbounds nuw %struct.VLCElem, ptr %111, i32 0, i32 0
  %113 = getelementptr inbounds nuw %struct.anon.0, ptr %112, i32 0, i32 2
  store i8 %107, ptr %113, align 1, !tbaa !15
  call void @llvm.lifetime.end.p0(i64 4, ptr %19) #8
  call void @llvm.lifetime.end.p0(i64 4, ptr %18) #8
  call void @llvm.lifetime.end.p0(i64 4, ptr %17) #8
  call void @llvm.lifetime.end.p0(i64 4, ptr %16) #8
  br label %114

114:                                              ; preds = %89
  %115 = load i32, ptr %15, align 4, !tbaa !13
  %116 = add i32 %115, 1
  store i32 %116, ptr %15, align 4, !tbaa !13
  br label %31, !llvm.loop !16

117:                                              ; preds = %35
  ret void
}