; Function Attrs: cold nounwind optsize uwtable
define void @ff_init_2d_vlc_rl(ptr noundef %0, ptr noundef %1, ptr noundef readonly captures(none) %2, ptr noundef readonly captures(none) %3, i32 noundef %4, i32 noundef %5, i32 noundef %6) local_unnamed_addr #0 {
  %8 = add nsw i32 %4, 2
  %9 = getelementptr inbounds nuw i8, ptr %0, i64 2
  tail call void @ff_vlc_init_table_sparse(ptr noundef %1, i32 noundef %5, i32 noundef 9, i32 noundef %8, ptr noundef nonnull %9, i32 noundef 4, i32 noundef 2, ptr noundef %0, i32 noundef 4, i32 noundef 2, ptr noundef null, i32 noundef 0, i32 noundef 0, i32 noundef %6) #6
  %.not = icmp eq i32 %5, 0
  br i1 %.not, label %._crit_edge, label %.lr.ph

.lr.ph:                                           ; preds = %7
  %10 = add nsw i32 %4, 1
  %wide.trip.count = zext i32 %5 to i64
  br label %11

._crit_edge:                                      ; preds = %32, %7
  ret void

11:                                               ; preds = %.lr.ph, %32
  %indvars.iv = phi i64 [ 0, %.lr.ph ], [ %indvars.iv.next, %32 ]
  %12 = getelementptr inbounds nuw %struct.VLCElem, ptr %1, i64 %indvars.iv
  %13 = load i16, ptr %12, align 2, !tbaa !4
  %14 = sext i16 %13 to i32
  %15 = getelementptr inbounds nuw i8, ptr %12, i64 2
  %16 = load i16, ptr %15, align 2, !tbaa !4
  %17 = icmp eq i16 %16, 0
  br i1 %17, label %32, label %18

18:                                               ; preds = %11
  %19 = icmp slt i16 %16, 0
  br i1 %19, label %32, label %20

20:                                               ; preds = %18
  %21 = icmp eq i32 %4, %14
  br i1 %21, label %32, label %22

22:                                               ; preds = %20
  %23 = icmp eq i32 %10, %14
  br i1 %23, label %32, label %24

24:                                               ; preds = %22
  %25 = sext i16 %13 to i64
  %26 = getelementptr inbounds i8, ptr %2, i64 %25
  %27 = load i8, ptr %26, align 1, !tbaa !4
  %28 = add i8 %27, 1
  %29 = getelementptr inbounds i8, ptr %3, i64 %25
  %30 = load i8, ptr %29, align 1, !tbaa !4
  %31 = zext i8 %30 to i16
  br label %32

32:                                               ; preds = %22, %20, %18, %11, %24
  %.032 = phi i16 [ %31, %24 ], [ 64, %11 ], [ %13, %18 ], [ 0, %20 ], [ 127, %22 ]
  %.0 = phi i8 [ %28, %24 ], [ 65, %11 ], [ 0, %18 ], [ 65, %20 ], [ 0, %22 ]
  %33 = trunc i16 %16 to i8
  store i8 %33, ptr %15, align 2, !tbaa !4
  store i16 %.032, ptr %12, align 2, !tbaa !4
  %34 = getelementptr inbounds nuw i8, ptr %12, i64 3
  store i8 %.0, ptr %34, align 1, !tbaa !4
  %indvars.iv.next = add nuw nsw i64 %indvars.iv, 1
  %exitcond.not = icmp eq i64 %indvars.iv.next, %wide.trip.count
  br i1 %exitcond.not, label %._crit_edge, label %11, !llvm.loop !7
}